target datalayout = "e-m:e-p270:32:32-p271:32:32-p272:64:64-i64:64-i128:128-f80:128-n8:16:32:64-S128"
target triple = "x86_64-pc-linux-gnu"

%struct.sock_gres = type { ptr, ptr, i64, ptr, ptr, ptr, i64, i32, i64, i64, i8 }
%struct.gres_state = type { i32, i32, ptr, ptr, i32 }
%struct.gres_job_state = type { i32, ptr, i16, i16, i64, i64, i64, i64, i64, i16, i16, i64, i32, ptr, ptr, ptr, ptr, i32, i64, i32, ptr, ptr, ptr, ptr, ptr, ptr }

@.str = private unnamed_addr constant [63 x i8] c"%s: sock_data has no gres_state_job. This should never happen.\00", align 1
@__func__.gres_sched_str = private unnamed_addr constant [15 x i8] c"gres_sched_str\00", align 1
@.str.1 = private unnamed_addr constant [2 x i8] c",\00", align 1
@.str.2 = private unnamed_addr constant [6 x i8] c"GRES:\00", align 1
@.str.3 = private unnamed_addr constant [12 x i8] c"%s%s:%s:%lu\00", align 1
@.str.4 = private unnamed_addr constant [9 x i8] c"%s%s:%lu\00", align 1

; Function Attrs: nounwind uwtable
define dso_local ptr @gres_sched_str(ptr noundef %0) #0 {
  %2 = alloca ptr, align 8
  %3 = alloca ptr, align 8
  %4 = alloca ptr, align 8
  %5 = alloca ptr, align 8
  %6 = alloca ptr, align 8
  %7 = alloca ptr, align 8
  %8 = alloca ptr, align 8
  %9 = alloca i32, align 4
  store ptr %0, ptr %3, align 8
  call void @llvm.lifetime.start.p0(i64 8, ptr %4) #3
  call void @llvm.lifetime.start.p0(i64 8, ptr %5) #3
  call void @llvm.lifetime.start.p0(i64 8, ptr %6) #3
  call void @llvm.lifetime.start.p0(i64 8, ptr %7) #3
  store ptr null, ptr %7, align 8
  call void @llvm.lifetime.start.p0(i64 8, ptr %8) #3
  %10 = load ptr, ptr %3, align 8
  %11 = icmp ne ptr %10, null
  br i1 %11, label %13, label %12

12:                                               ; preds = %1
  store ptr null, ptr %2, align 8
  store i32 1, ptr %9, align 4
  br label %69

13:                                               ; preds = %1
  %14 = load ptr, ptr %3, align 8
  %15 = call ptr @slurm_list_iterator_create(ptr noundef %14)
  store ptr %15, ptr %4, align 8
  br label %16

16:                                               ; preds = %65, %25, %13
  %17 = load ptr, ptr %4, align 8
  %18 = call ptr @slurm_list_next(ptr noundef %17)
  store ptr %18, ptr %5, align 8
  %19 = icmp ne ptr %18, null
  br i1 %19, label %20, label %66

20:                                               ; preds = %16
  %21 = load ptr, ptr %5, align 8
  %22 = getelementptr inbounds nuw %struct.sock_gres, ptr %21, i32 0, i32 4
  %23 = load ptr, ptr %22, align 8
  %24 = icmp ne ptr %23, null
  br i1 %24, label %27, label %25

25:                                               ; preds = %20
  %26 = call i32 (ptr, ...) @slurm_error(ptr noundef @.str, ptr noundef @__func__.gres_sched_str)
  br label %16, !llvm.loop !8

27:                                               ; preds = %20
  %28 = load ptr, ptr %5, align 8
  %29 = getelementptr inbounds nuw %struct.sock_gres, ptr %28, i32 0, i32 4
  %30 = load ptr, ptr %29, align 8
  %31 = getelementptr inbounds nuw %struct.gres_state, ptr %30, i32 0, i32 2
  %32 = load ptr, ptr %31, align 8
  store ptr %32, ptr %6, align 8
  %33 = load ptr, ptr %7, align 8
  %34 = icmp ne ptr %33, null
  br i1 %34, label %35, label %36

35:                                               ; preds = %27
  store ptr @.str.1, ptr %8, align 8
  br label %37

36:                                               ; preds = %27
  store ptr @.str.2, ptr %8, align 8
  br label %37

37:                                               ; preds = %36, %35
  %38 = load ptr, ptr %6, align 8
  %39 = getelementptr inbounds nuw %struct.gres_job_state, ptr %38, i32 0, i32 1
  %40 = load ptr, ptr %39, align 8
  %41 = icmp ne ptr %40, null
  br i1 %41, label %42, label %55

42:                                               ; preds = %37
  %43 = load ptr, ptr %8, align 8
  %44 = load ptr, ptr %5, align 8
  %45 = getelementptr inbounds nuw %struct.sock_gres, ptr %44, i32 0, i32 4
  %46 = load ptr, ptr %45, align 8
  %47 = getelementptr inbounds nuw %struct.gres_state, ptr %46, i32 0, i32 3
  %48 = load ptr, ptr %47, align 8
  %49 = load ptr, ptr %6, align 8
  %50 = getelementptr inbounds nuw %struct.gres_job_state, ptr %49, i32 0, i32 1
  %51 = load ptr, ptr %50, align 8
  %52 = load ptr, ptr %5, align 8
  %53 = getelementptr inbounds nuw %struct.sock_gres, ptr %52, i32 0, i32 8
  %54 = load i64, ptr %53, align 8
  call void (ptr, ptr, ...) @slurm_xstrfmtcat(ptr noundef %7, ptr noundef @.str.3, ptr noundef %43, ptr noundef %48, ptr noundef %51, i64 noundef %54)
  br label %65

55:                                               ; preds = %37
  %56 = load ptr, ptr %8, align 8
  %57 = load ptr, ptr %5, align 8
  %58 = getelementptr inbounds nuw %struct.sock_gres, ptr %57, i32 0, i32 4
  %59 = load ptr, ptr %58, align 8
  %60 = getelementptr inbounds nuw %struct.gres_state, ptr %59, i32 0, i32 3
  %61 = load ptr, ptr %60, align 8
  %62 = load ptr, ptr %5, align 8
  %63 = getelementptr inbounds nuw %struct.sock_gres, ptr %62, i32 0, i32 8
  %64 = load i64, ptr %63, align 8
  call void (ptr, ptr, ...) @slurm_xstrfmtcat(ptr noundef %7, ptr noundef @.str.4, ptr noundef %56, ptr noundef %61, i64 noundef %64)
  br label %65

65:                                               ; preds = %55, %42
  br label %16, !llvm.loop !8

66:                                               ; preds = %16
  %67 = load ptr, ptr %4, align 8
  call void @slurm_list_iterator_destroy(ptr noundef %67)
  %68 = load ptr, ptr %7, align 8
  store ptr %68, ptr %2, align 8
  store i32 1, ptr %9, align 4
  br label %69

69:                                               ; preds = %66, %12
  call void @llvm.lifetime.end.p0(i64 8, ptr %8) #3
  call void @llvm.lifetime.end.p0(i64 8, ptr %7) #3
  call void @llvm.lifetime.end.p0(i64 8, ptr %6) #3
  call void @llvm.lifetime.end.p0(i64 8, ptr %5) #3
  call void @llvm.lifetime.end.p0(i64 8, ptr %4) #3
  %70 = load ptr, ptr %2, align 8
  ret ptr %70
}