; Function Attrs: nounwind uwtable
define dso_local ptr @gres_sched_str(ptr noundef %0) local_unnamed_addr #0 {
  %2 = alloca ptr, align 8
  call void @llvm.lifetime.start.p0(i64 8, ptr nonnull %2) #4
  store ptr null, ptr %2, align 8
  %.not = icmp eq ptr %0, null
  br i1 %.not, label %25, label %3

3:                                                ; preds = %1
  %4 = tail call ptr @slurm_list_iterator_create(ptr noundef nonnull %0) #4
  %5 = tail call ptr @slurm_list_next(ptr noundef %4) #4
  %.not2024 = icmp eq ptr %5, null
  br i1 %.not2024, label %._crit_edge, label %.lr.ph

.lr.ph:                                           ; preds = %3, %.backedge
  %6 = phi ptr [ %11, %.backedge ], [ %5, %3 ]
  %7 = getelementptr inbounds nuw i8, ptr %6, i64 32
  %8 = load ptr, ptr %7, align 8
  %.not21 = icmp eq ptr %8, null
  br i1 %.not21, label %9, label %12

9:                                                ; preds = %.lr.ph
  %10 = call i32 (ptr, ...) @slurm_error(ptr noundef nonnull @.str, ptr noundef nonnull @__func__.gres_sched_str) #4
  br label %.backedge

.backedge:                                        ; preds = %22, %23, %9
  %11 = call ptr @slurm_list_next(ptr noundef %4) #4
  %.not20 = icmp eq ptr %11, null
  br i1 %.not20, label %._crit_edge, label %.lr.ph, !llvm.loop !8

12:                                               ; preds = %.lr.ph
  %13 = getelementptr inbounds nuw i8, ptr %8, i64 8
  %14 = load ptr, ptr %13, align 8
  %15 = load ptr, ptr %2, align 8
  %.not22 = icmp eq ptr %15, null
  %.str.2..str.1 = select i1 %.not22, ptr @.str.2, ptr @.str.1
  %16 = getelementptr inbounds nuw i8, ptr %14, i64 8
  %17 = load ptr, ptr %16, align 8
  %.not23 = icmp eq ptr %17, null
  %18 = getelementptr inbounds nuw i8, ptr %8, i64 16
  %19 = load ptr, ptr %18, align 8
  %20 = getelementptr inbounds nuw i8, ptr %6, i64 64
  %21 = load i64, ptr %20, align 8
  br i1 %.not23, label %23, label %22

22:                                               ; preds = %12
  call void (ptr, ptr, ...) @slurm_xstrfmtcat(ptr noundef nonnull %2, ptr noundef nonnull @.str.3, ptr noundef nonnull %.str.2..str.1, ptr noundef %19, ptr noundef nonnull %17, i64 noundef %21) #4
  br label %.backedge

23:                                               ; preds = %12
  call void (ptr, ptr, ...) @slurm_xstrfmtcat(ptr noundef nonnull %2, ptr noundef nonnull @.str.4, ptr noundef nonnull %.str.2..str.1, ptr noundef %19, i64 noundef %21) #4
  br label %.backedge

._crit_edge:                                      ; preds = %.backedge, %3
  call void @slurm_list_iterator_destroy(ptr noundef %4) #4
  %24 = load ptr, ptr %2, align 8
  br label %25

25:                                               ; preds = %1, %._crit_edge
  %.015 = phi ptr [ %24, %._crit_edge ], [ null, %1 ]
  call void @llvm.lifetime.end.p0(i64 8, ptr nonnull %2) #4
  ret ptr %.015
}